target datalayout = "e-m:e-p270:32:32-p271:32:32-p272:64:64-i64:64-i128:128-f80:128-n8:16:32:64-S128"
target triple = "x86_64-pc-linux-gnu"

; Function Attrs: nounwind uwtable
define internal i32 @get_log_h(i16 noundef signext %0, i32 noundef %1) #1 {
  %3 = alloca i16, align 2
  %4 = alloca i32, align 4
  store i16 %0, ptr %3, align 2, !tbaa !93
  store i32 %1, ptr %4, align 4, !tbaa !49
  %5 = load i32, ptr %4, align 4, !tbaa !49
  %6 = sdiv i32 %5, 2
  %7 = sitofp i32 %6 to double
  %8 = load i16, ptr %3, align 2, !tbaa !93
  %9 = sext i16 %8 to i32
  %10 = icmp sgt i32 %9, 0
  %11 = select i1 %10, i32 1, i32 -1
  %12 = sitofp i32 %11 to double
  %13 = load i16, ptr %3, align 2, !tbaa !93
  %14 = sext i16 %13 to i32
  %15 = icmp sge i32 %14, 0
  br i1 %15, label %16, label %19

16:                                               ; preds = %2
  %17 = load i16, ptr %3, align 2, !tbaa !93
  %18 = sext i16 %17 to i32
  br label %23

19:                                               ; preds = %2
  %20 = load i16, ptr %3, align 2, !tbaa !93
  %21 = sext i16 %20 to i32
  %22 = sub nsw i32 0, %21
  br label %23

23:                                               ; preds = %19, %16
  %24 = phi i32 [ %18, %16 ], [ %22, %19 ]
  %25 = add nsw i32 1, %24
  %26 = sitofp i32 %25 to double
  %27 = call nsz double @llvm.log10.f64(double %26)
  %28 = load i32, ptr %4, align 4, !tbaa !49
  %29 = sdiv i32 %28, 2
  %30 = sitofp i32 %29 to double
  %31 = fmul nsz double %27, %30
  %32 = call nsz double @llvm.log10.f64(double 3.276800e+04)
  %33 = fdiv nsz double %31, %32
  %34 = fneg nsz double %12
  %35 = call nsz double @llvm.fmuladd.f64(double %34, double %33, double %7)
  %36 = fptosi double %35 to i32
  ret i32 %36
}